; Function Attrs: mustprogress nounwind uwtable
define noundef zeroext i1 @_ZN8nanobind6detail8load_i16EP7_objecthPs(ptr noundef %0, i8 noundef zeroext %1, ptr noundef writeonly captures(none) %2) local_unnamed_addr #9 personality ptr @__gxx_personality_v0 {
  %4 = getelementptr i8, ptr %0, i64 8
  %.val4 = load ptr, ptr %4, align 8
  %.not = icmp eq ptr %.val4, @PyLong_Type
  br i1 %.not, label %5, label %25, !prof !4

5:                                                ; preds = %3
  %6 = getelementptr inbounds nuw i8, ptr %0, i64 16
  %7 = load i64, ptr %6, align 8
  %8 = tail call noundef i64 @llvm.abs.i64(i64 %7, i1 true)
  %9 = icmp samesign ult i64 %8, 2
  br i1 %9, label %10, label %16, !prof !4

10:                                               ; preds = %5
  %11 = getelementptr inbounds nuw i8, ptr %0, i64 24
  %12 = load i32, ptr %11, align 8
  %13 = zext i32 %12 to i64
  %14 = mul nsw i64 %7, %13
  %15 = add i64 %14, 32768
  %.not32.i = icmp ult i64 %15, 65536
  br i1 %.not32.i, label %_ZN8nanobind6detail8load_intIsLb1EEEbP7_objectjPT_.exit.sink.split, label %_ZN8nanobind6detail8load_intIsLb1EEEbP7_objectjPT_.exit, !prof !4

16:                                               ; preds = %5
  %17 = invoke i64 @PyLong_AsLong(ptr noundef nonnull %0)
          to label %18 unwind label %62

18:                                               ; preds = %16
  %19 = icmp eq i64 %17, -1
  br i1 %19, label %20, label %23

20:                                               ; preds = %18
  %21 = invoke ptr @PyErr_Occurred()
          to label %22 unwind label %62

22:                                               ; preds = %20
  %.not30.i = icmp eq ptr %21, null
  br i1 %.not30.i, label %_ZN8nanobind6detail8load_intIsLb1EEEbP7_objectjPT_.exit.sink.split, label %.invoke

23:                                               ; preds = %18
  %24 = add i64 %17, 32768
  %.not31.i = icmp ult i64 %24, 65536
  br i1 %.not31.i, label %_ZN8nanobind6detail8load_intIsLb1EEEbP7_objectjPT_.exit.sink.split, label %_ZN8nanobind6detail8load_intIsLb1EEEbP7_objectjPT_.exit

25:                                               ; preds = %3
  %26 = and i8 %1, 1
  %.not27.i = icmp eq i8 %26, 0
  %.not.i6 = icmp eq ptr %.val4, @PyFloat_Type
  %or.cond = or i1 %.not27.i, %.not.i6
  br i1 %or.cond, label %_ZN8nanobind6detail8load_intIsLb1EEEbP7_objectjPT_.exit, label %27

27:                                               ; preds = %25
  %28 = invoke i32 @PyType_IsSubtype(ptr noundef %.val4, ptr noundef nonnull @PyFloat_Type)
          to label %_ZL19_PyObject_TypeCheckP7_objectP11_typeobject.exit unwind label %62

_ZL19_PyObject_TypeCheckP7_objectP11_typeobject.exit: ; preds = %27
  %.not15 = icmp eq i32 %28, 0
  br i1 %.not15, label %29, label %_ZN8nanobind6detail8load_intIsLb1EEEbP7_objectjPT_.exit

29:                                               ; preds = %_ZL19_PyObject_TypeCheckP7_objectP11_typeobject.exit
  %30 = invoke ptr @PyNumber_Long(ptr noundef nonnull %0)
          to label %31 unwind label %62

31:                                               ; preds = %29
  %.not29.i.not = icmp eq ptr %30, null
  br i1 %.not29.i.not, label %.invoke, label %32

32:                                               ; preds = %31
  %33 = getelementptr i8, ptr %30, i64 8
  %.val = load ptr, ptr %33, align 8
  %.not16 = icmp eq ptr %.val, @PyLong_Type
  br i1 %.not16, label %34, label %_ZN8nanobind6detail8load_intIsLb0EEEbP7_objectjPT_.exit, !prof !4

34:                                               ; preds = %32
  %35 = getelementptr inbounds nuw i8, ptr %30, i64 16
  %36 = load i64, ptr %35, align 8
  %37 = tail call noundef i64 @llvm.abs.i64(i64 %36, i1 true)
  %38 = icmp samesign ult i64 %37, 2
  br i1 %38, label %39, label %45, !prof !4

39:                                               ; preds = %34
  %40 = getelementptr inbounds nuw i8, ptr %30, i64 24
  %41 = load i32, ptr %40, align 8
  %42 = zext i32 %41 to i64
  %43 = mul nsw i64 %36, %42
  %44 = add i64 %43, 32768
  %.not18.i = icmp ult i64 %44, 65536
  br i1 %.not18.i, label %_ZN8nanobind6detail8load_intIsLb0EEEbP7_objectjPT_.exit.sink.split, label %_ZN8nanobind6detail8load_intIsLb0EEEbP7_objectjPT_.exit, !prof !4

45:                                               ; preds = %34
  %46 = invoke i64 @PyLong_AsLong(ptr noundef nonnull %30)
          to label %47 unwind label %55

47:                                               ; preds = %45
  %48 = icmp eq i64 %46, -1
  br i1 %48, label %49, label %53

49:                                               ; preds = %47
  %50 = invoke ptr @PyErr_Occurred()
          to label %51 unwind label %55

51:                                               ; preds = %49
  %.not16.i = icmp eq ptr %50, null
  br i1 %.not16.i, label %_ZN8nanobind6detail8load_intIsLb0EEEbP7_objectjPT_.exit.sink.split, label %52

52:                                               ; preds = %51
  invoke void @PyErr_Clear()
          to label %_ZN8nanobind6detail8load_intIsLb0EEEbP7_objectjPT_.exit unwind label %55

53:                                               ; preds = %47
  %54 = add i64 %46, 32768
  %.not17.i = icmp ult i64 %54, 65536
  br i1 %.not17.i, label %_ZN8nanobind6detail8load_intIsLb0EEEbP7_objectjPT_.exit.sink.split, label %_ZN8nanobind6detail8load_intIsLb0EEEbP7_objectjPT_.exit

55:                                               ; preds = %52, %49, %45
  %56 = landingpad { ptr, i32 }
          catch ptr null
  %57 = extractvalue { ptr, i32 } %56, 0
  tail call void @__clang_call_terminate(ptr %57) #29
  unreachable

_ZN8nanobind6detail8load_intIsLb0EEEbP7_objectjPT_.exit.sink.split: ; preds = %53, %51, %39
  %.sink17 = phi i64 [ %43, %39 ], [ %46, %51 ], [ %46, %53 ]
  %58 = trunc i64 %.sink17 to i16
  store i16 %58, ptr %2, align 2
  br label %_ZN8nanobind6detail8load_intIsLb0EEEbP7_objectjPT_.exit

_ZN8nanobind6detail8load_intIsLb0EEEbP7_objectjPT_.exit: ; preds = %_ZN8nanobind6detail8load_intIsLb0EEEbP7_objectjPT_.exit.sink.split, %32, %39, %52, %53
  %.4.i3 = phi i1 [ false, %39 ], [ false, %52 ], [ false, %53 ], [ false, %32 ], [ true, %_ZN8nanobind6detail8load_intIsLb0EEEbP7_objectjPT_.exit.sink.split ]
  %59 = load i64, ptr %30, align 8
  %60 = add nsw i64 %59, -1
  store i64 %60, ptr %30, align 8
  %.not.i7 = icmp eq i64 %60, 0
  br i1 %.not.i7, label %61, label %_ZN8nanobind6detail8load_intIsLb1EEEbP7_objectjPT_.exit

61:                                               ; preds = %_ZN8nanobind6detail8load_intIsLb0EEEbP7_objectjPT_.exit
  invoke void @_Py_Dealloc(ptr noundef nonnull %30)
          to label %_ZN8nanobind6detail8load_intIsLb1EEEbP7_objectjPT_.exit unwind label %62

.invoke:                                          ; preds = %31, %22
  invoke void @PyErr_Clear()
          to label %_ZN8nanobind6detail8load_intIsLb1EEEbP7_objectjPT_.exit unwind label %62

62:                                               ; preds = %.invoke, %61, %27, %29, %20, %16
  %63 = landingpad { ptr, i32 }
          catch ptr null
  %64 = extractvalue { ptr, i32 } %63, 0
  tail call void @__clang_call_terminate(ptr %64) #29
  unreachable

_ZN8nanobind6detail8load_intIsLb1EEEbP7_objectjPT_.exit.sink.split: ; preds = %23, %22, %10
  %.sink18 = phi i64 [ %14, %10 ], [ %17, %22 ], [ %17, %23 ]
  %65 = trunc i64 %.sink18 to i16
  store i16 %65, ptr %2, align 2
  br label %_ZN8nanobind6detail8load_intIsLb1EEEbP7_objectjPT_.exit

_ZN8nanobind6detail8load_intIsLb1EEEbP7_objectjPT_.exit: ; preds = %_ZN8nanobind6detail8load_intIsLb1EEEbP7_objectjPT_.exit.sink.split, %.invoke, %61, %_ZN8nanobind6detail8load_intIsLb0EEEbP7_objectjPT_.exit, %25, %_ZL19_PyObject_TypeCheckP7_objectP11_typeobject.exit, %10, %23
  %.4.i = phi i1 [ false, %10 ], [ false, %23 ], [ false, %_ZL19_PyObject_TypeCheckP7_objectP11_typeobject.exit ], [ false, %25 ], [ %.4.i3, %_ZN8nanobind6detail8load_intIsLb0EEEbP7_objectjPT_.exit ], [ %.4.i3, %61 ], [ false, %.invoke ], [ true, %_ZN8nanobind6detail8load_intIsLb1EEEbP7_objectjPT_.exit.sink.split ]
  ret i1 %.4.i
}